target datalayout = "e-m:e-p270:32:32-p271:32:32-p272:64:64-i64:64-i128:128-f80:128-n8:16:32:64-S128"
target triple = "x86_64-pc-linux-gnu"

%union.JfrNativeSettings = type { [164 x %struct.jfrNativeEventSetting] }
%struct.jfrNativeEventSetting = type { i64, i64, i8, i8, i8, [5 x i8] }
%class.NoSafepointVerifier = type { ptr }
%class.EventZStatisticsCounter = type { %class.JfrEvent.base.10, i64, i64, i64 }
%class.JfrEvent.base.10 = type <{ i64, i64, i8, i8, i8 }>
%class.JfrEvent.9 = type <{ i64, i64, i8, i8, i8, [5 x i8] }>
%class.TimeInstant.19 = type { %class.CounterRepresentation }
%class.CounterRepresentation = type { %class.Representation.20 }
%class.Representation.20 = type { i64 }

@_ZN15JfrEventSetting19_jvm_event_settingsE = external global %union.JfrNativeSettings, align 8

; Function Attrs: mustprogress nounwind uwtable
define linkonce_odr hidden void @_ZN14RepresentationI33FastUnorderedElapsedCounterSourceEC2Ev(ptr noundef nonnull align 8 dereferenceable(8) %0) unnamed_addr #1 comdat align 2 {
  %2 = alloca ptr, align 8
  store ptr %0, ptr %2, align 8
  %3 = load ptr, ptr %2, align 8
  %4 = getelementptr inbounds %class.Representation.20, ptr %3, i32 0, i32 0
  store i64 0, ptr %4, align 8
  ret void
}

; Function Attrs: mustprogress nounwind uwtable
define linkonce_odr hidden void @_ZN21CounterRepresentationI33FastUnorderedElapsedCounterSourceEC2Ev(ptr noundef nonnull align 8 dereferenceable(8) %0) unnamed_addr #1 comdat align 2 {
  %2 = alloca ptr, align 8
  store ptr %0, ptr %2, align 8
  %3 = load ptr, ptr %2, align 8
  call void @_ZN14RepresentationI33FastUnorderedElapsedCounterSourceEC2Ev(ptr noundef nonnull align 8 dereferenceable(8) %3)
  ret void
}

; Function Attrs: mustprogress nounwind uwtable
define linkonce_odr hidden noundef nonnull align 8 dereferenceable(24) ptr @_ZN15JfrEventSetting7settingE10JfrEventId(i32 noundef %0) #1 comdat align 2 {
  %2 = alloca i32, align 4
  store i32 %0, ptr %2, align 4
  %3 = load i32, ptr %2, align 4
  %4 = zext i32 %3 to i64
  %5 = getelementptr inbounds [164 x %struct.jfrNativeEventSetting], ptr @_ZN15JfrEventSetting19_jvm_event_settingsE, i64 0, i64 %4
  ret ptr %5
}

; Function Attrs: mustprogress nounwind uwtable
define linkonce_odr hidden noundef i64 @_ZNK21CounterRepresentationI33FastUnorderedElapsedCounterSourceE5valueEv(ptr noundef nonnull align 8 dereferenceable(8) %0) #1 comdat align 2 {
  %2 = alloca ptr, align 8
  store ptr %0, ptr %2, align 8
  %3 = load ptr, ptr %2, align 8
  %4 = getelementptr inbounds %class.Representation.20, ptr %3, i32 0, i32 0
  %5 = load i64, ptr %4, align 8
  ret i64 %5
}

; Function Attrs: mustprogress nounwind uwtable
define linkonce_odr hidden void @_ZN11TimeInstantI21CounterRepresentation33FastUnorderedElapsedCounterSourceE5stampEv(ptr noundef nonnull align 8 dereferenceable(8) %0) #1 comdat align 2 {
  %2 = alloca ptr, align 8
  store ptr %0, ptr %2, align 8
  %3 = load ptr, ptr %2, align 8
  %4 = call noundef i64 @_ZN33FastUnorderedElapsedCounterSource3nowEv()
  %5 = getelementptr inbounds %class.Representation.20, ptr %3, i32 0, i32 0
  store i64 %4, ptr %5, align 8
  ret void
}

; Function Attrs: mustprogress nounwind uwtable
define linkonce_odr hidden void @_ZN11TimeInstantI21CounterRepresentation33FastUnorderedElapsedCounterSourceEC2Ev(ptr noundef nonnull align 8 dereferenceable(8) %0) unnamed_addr #1 comdat align 2 {
  %2 = alloca ptr, align 8
  store ptr %0, ptr %2, align 8
  %3 = load ptr, ptr %2, align 8
  call void @_ZN21CounterRepresentationI33FastUnorderedElapsedCounterSourceEC2Ev(ptr noundef nonnull align 8 dereferenceable(8) %3)
  ret void
}

; Function Attrs: mustprogress nounwind uwtable
define linkonce_odr hidden noundef i64 @_ZN15JfrEventSetting9thresholdE10JfrEventId(i32 noundef %0) #1 comdat align 2 {
  %2 = alloca i32, align 4
  store i32 %0, ptr %2, align 4
  %3 = load i32, ptr %2, align 4
  %4 = call noundef nonnull align 8 dereferenceable(24) ptr @_ZN15JfrEventSetting7settingE10JfrEventId(i32 noundef %3)
  %5 = getelementptr inbounds %struct.jfrNativeEventSetting, ptr %4, i32 0, i32 0
  %6 = load i64, ptr %5, align 8
  ret i64 %6
}

; Function Attrs: mustprogress nounwind uwtable
define linkonce_odr hidden void @_ZN8JfrEventI23EventZStatisticsCounterE11set_endtimeERK11TimeInstantI21CounterRepresentation33FastUnorderedElapsedCounterSourceE(ptr noundef nonnull align 8 dereferenceable(19) %0, ptr noundef nonnull align 8 dereferenceable(8) %1) #1 comdat align 2 {
  %3 = alloca ptr, align 8
  %4 = alloca ptr, align 8
  store ptr %0, ptr %3, align 8
  store ptr %1, ptr %4, align 8
  %5 = load ptr, ptr %3, align 8
  %6 = load ptr, ptr %4, align 8
  %7 = call noundef i64 @_ZNK21CounterRepresentationI33FastUnorderedElapsedCounterSourceE5valueEv(ptr noundef nonnull align 8 dereferenceable(8) %6)
  %8 = getelementptr inbounds %class.JfrEvent.9, ptr %5, i32 0, i32 1
  store i64 %7, ptr %8, align 8
  ret void
}

; Function Attrs: mustprogress nounwind uwtable
define linkonce_odr hidden noundef zeroext i1 @_ZN15JfrEventSetting10is_enabledE10JfrEventId(i32 noundef %0) #1 comdat align 2 {
  %2 = alloca i32, align 4
  store i32 %0, ptr %2, align 4
  %3 = load i32, ptr %2, align 4
  %4 = call noundef nonnull align 8 dereferenceable(24) ptr @_ZN15JfrEventSetting7settingE10JfrEventId(i32 noundef %3)
  %5 = getelementptr inbounds %struct.jfrNativeEventSetting, ptr %4, i32 0, i32 3
  %6 = load i8, ptr %5, align 1
  %7 = zext i8 %6 to i32
  %8 = icmp ne i32 0, %7
  ret i1 %8
}

; Function Attrs: mustprogress nounwind uwtable
define linkonce_odr hidden void @_ZN8JfrEventI23EventZStatisticsCounterE13set_starttimeERK11TimeInstantI21CounterRepresentation33FastUnorderedElapsedCounterSourceE(ptr noundef nonnull align 8 dereferenceable(19) %0, ptr noundef nonnull align 8 dereferenceable(8) %1) #1 comdat align 2 {
  %3 = alloca ptr, align 8
  %4 = alloca ptr, align 8
  store ptr %0, ptr %3, align 8
  store ptr %1, ptr %4, align 8
  %5 = load ptr, ptr %3, align 8
  %6 = load ptr, ptr %4, align 8
  %7 = call noundef i64 @_ZNK21CounterRepresentationI33FastUnorderedElapsedCounterSourceE5valueEv(ptr noundef nonnull align 8 dereferenceable(8) %6)
  %8 = getelementptr inbounds %class.JfrEvent.9, ptr %5, i32 0, i32 0
  store i64 %7, ptr %8, align 8
  ret void
}

; Function Attrs: mustprogress nounwind uwtable
define linkonce_odr hidden i64 @_ZN11TimeInstantI21CounterRepresentation33FastUnorderedElapsedCounterSourceE3nowEv() #1 comdat align 2 {
  %1 = alloca %class.TimeInstant.19, align 8
  call void @_ZN11TimeInstantI21CounterRepresentation33FastUnorderedElapsedCounterSourceEC2Ev(ptr noundef nonnull align 8 dereferenceable(8) %1)
  call void @_ZN11TimeInstantI21CounterRepresentation33FastUnorderedElapsedCounterSourceE5stampEv(ptr noundef nonnull align 8 dereferenceable(8) %1)
  %2 = getelementptr inbounds %class.TimeInstant.19, ptr %1, i32 0, i32 0
  %3 = getelementptr inbounds %class.CounterRepresentation, ptr %2, i32 0, i32 0
  %4 = getelementptr inbounds %class.Representation.20, ptr %3, i32 0, i32 0
  %5 = load i64, ptr %4, align 8
  ret i64 %5
}

; Function Attrs: mustprogress nounwind uwtable
define linkonce_odr hidden noundef zeroext i1 @_ZN8JfrEventI23EventZStatisticsCounterE8evaluateEv(ptr noundef nonnull align 8 dereferenceable(19) %0) #1 comdat align 2 {
  %2 = alloca i1, align 1
  %3 = alloca ptr, align 8
  %4 = alloca %class.TimeInstant.19, align 8
  %5 = alloca %class.TimeInstant.19, align 8
  store ptr %0, ptr %3, align 8
  %6 = load ptr, ptr %3, align 8
  %7 = getelementptr inbounds %class.JfrEvent.9, ptr %6, i32 0, i32 0
  %8 = load i64, ptr %7, align 8
  %9 = icmp eq i64 %8, 0
  br i1 %9, label %10, label %15

10:                                               ; preds = %1
  %11 = call i64 @_ZN11TimeInstantI21CounterRepresentation33FastUnorderedElapsedCounterSourceE3nowEv()
  %12 = getelementptr inbounds %class.TimeInstant.19, ptr %4, i32 0, i32 0
  %13 = getelementptr inbounds %class.CounterRepresentation, ptr %12, i32 0, i32 0
  %14 = getelementptr inbounds %class.Representation.20, ptr %13, i32 0, i32 0
  store i64 %11, ptr %14, align 8
  call void @_ZN8JfrEventI23EventZStatisticsCounterE13set_starttimeERK11TimeInstantI21CounterRepresentation33FastUnorderedElapsedCounterSourceE(ptr noundef nonnull align 8 dereferenceable(19) %6, ptr noundef nonnull align 8 dereferenceable(8) %4)
  br label %25

15:                                               ; preds = %1
  %16 = getelementptr inbounds %class.JfrEvent.9, ptr %6, i32 0, i32 1
  %17 = load i64, ptr %16, align 8
  %18 = icmp eq i64 %17, 0
  br i1 %18, label %19, label %24

19:                                               ; preds = %15
  %20 = call i64 @_ZN11TimeInstantI21CounterRepresentation33FastUnorderedElapsedCounterSourceE3nowEv()
  %21 = getelementptr inbounds %class.TimeInstant.19, ptr %5, i32 0, i32 0
  %22 = getelementptr inbounds %class.CounterRepresentation, ptr %21, i32 0, i32 0
  %23 = getelementptr inbounds %class.Representation.20, ptr %22, i32 0, i32 0
  store i64 %20, ptr %23, align 8
  call void @_ZN8JfrEventI23EventZStatisticsCounterE11set_endtimeERK11TimeInstantI21CounterRepresentation33FastUnorderedElapsedCounterSourceE(ptr noundef nonnull align 8 dereferenceable(19) %6, ptr noundef nonnull align 8 dereferenceable(8) %5)
  br label %24

24:                                               ; preds = %19, %15
  br label %25

25:                                               ; preds = %24, %10
  %26 = getelementptr inbounds %class.JfrEvent.9, ptr %6, i32 0, i32 1
  %27 = load i64, ptr %26, align 8
  %28 = getelementptr inbounds %class.JfrEvent.9, ptr %6, i32 0, i32 0
  %29 = load i64, ptr %28, align 8
  %30 = sub nsw i64 %27, %29
  %31 = call noundef i64 @_ZN15JfrEventSetting9thresholdE10JfrEventId(i32 noundef 150)
  %32 = icmp slt i64 %30, %31
  br i1 %32, label %33, label %34

33:                                               ; preds = %25
  store i1 false, ptr %2, align 1
  br label %35

34:                                               ; preds = %25
  store i1 true, ptr %2, align 1
  br label %35

35:                                               ; preds = %34, %33
  %36 = load i1, ptr %2, align 1
  ret i1 %36
}

; Function Attrs: mustprogress nounwind uwtable
define linkonce_odr hidden noundef zeroext i1 @_ZN8JfrEventI23EventZStatisticsCounterE10is_enabledEv() #1 comdat align 2 {
  %1 = call noundef zeroext i1 @_ZN15JfrEventSetting10is_enabledE10JfrEventId(i32 noundef 150)
  ret i1 %1
}

; Function Attrs: mustprogress nounwind uwtable
define linkonce_odr hidden void @_ZN8JfrEventI23EventZStatisticsCounterEC2E14EventStartTime(ptr noundef nonnull align 8 dereferenceable(19) %0, i32 noundef %1) unnamed_addr #1 comdat align 2 {
  %3 = alloca ptr, align 8
  %4 = alloca i32, align 4
  %5 = alloca %class.TimeInstant.19, align 8
  store ptr %0, ptr %3, align 8
  store i32 %1, ptr %4, align 4
  %6 = load ptr, ptr %3, align 8
  %7 = getelementptr inbounds %class.JfrEvent.9, ptr %6, i32 0, i32 0
  store i64 0, ptr %7, align 8
  %8 = getelementptr inbounds %class.JfrEvent.9, ptr %6, i32 0, i32 1
  store i64 0, ptr %8, align 8
  %9 = getelementptr inbounds %class.JfrEvent.9, ptr %6, i32 0, i32 2
  %10 = load i32, ptr %4, align 4
  %11 = icmp eq i32 %10, 0
  %12 = zext i1 %11 to i8
  store i8 %12, ptr %9, align 8
  %13 = getelementptr inbounds %class.JfrEvent.9, ptr %6, i32 0, i32 3
  store i8 0, ptr %13, align 1
  %14 = getelementptr inbounds %class.JfrEvent.9, ptr %6, i32 0, i32 4
  store i8 0, ptr %14, align 2
  %15 = getelementptr inbounds %class.JfrEvent.9, ptr %6, i32 0, i32 2
  %16 = load i8, ptr %15, align 8
  %17 = trunc i8 %16 to i1
  br i1 %17, label %25, label %18

18:                                               ; preds = %2
  %19 = call noundef zeroext i1 @_ZN8JfrEventI23EventZStatisticsCounterE10is_enabledEv()
  br i1 %19, label %20, label %25

20:                                               ; preds = %18
  %21 = call i64 @_ZN11TimeInstantI21CounterRepresentation33FastUnorderedElapsedCounterSourceE3nowEv()
  %22 = getelementptr inbounds %class.TimeInstant.19, ptr %5, i32 0, i32 0
  %23 = getelementptr inbounds %class.CounterRepresentation, ptr %22, i32 0, i32 0
  %24 = getelementptr inbounds %class.Representation.20, ptr %23, i32 0, i32 0
  store i64 %21, ptr %24, align 8
  call void @_ZN8JfrEventI23EventZStatisticsCounterE13set_starttimeERK11TimeInstantI21CounterRepresentation33FastUnorderedElapsedCounterSourceE(ptr noundef nonnull align 8 dereferenceable(19) %6, ptr noundef nonnull align 8 dereferenceable(8) %5)
  br label %25

25:                                               ; preds = %20, %18, %2
  ret void
}

; Function Attrs: mustprogress nounwind uwtable
define linkonce_odr hidden void @_ZN19NoSafepointVerifierD2Ev(ptr noundef nonnull align 8 dereferenceable(8) %0) unnamed_addr #1 comdat align 2 {
  %2 = alloca ptr, align 8
  store ptr %0, ptr %2, align 8
  ret void
}

; Function Attrs: mustprogress nounwind uwtable
define linkonce_odr hidden void @_ZN23EventZStatisticsCounter9set_valueEm(ptr noundef nonnull align 8 dereferenceable(48) %0, i64 noundef %1) #1 comdat align 2 {
  %3 = alloca ptr, align 8
  %4 = alloca i64, align 8
  store ptr %0, ptr %3, align 8
  store i64 %1, ptr %4, align 8
  %5 = load ptr, ptr %3, align 8
  %6 = load i64, ptr %4, align 8
  %7 = getelementptr inbounds %class.EventZStatisticsCounter, ptr %5, i32 0, i32 3
  store i64 %6, ptr %7, align 8
  ret void
}

; Function Attrs: mustprogress nounwind uwtable
define linkonce_odr hidden void @_ZN23EventZStatisticsCounter13set_incrementEm(ptr noundef nonnull align 8 dereferenceable(48) %0, i64 noundef %1) #1 comdat align 2 {
  %3 = alloca ptr, align 8
  %4 = alloca i64, align 8
  store ptr %0, ptr %3, align 8
  store i64 %1, ptr %4, align 8
  %5 = load ptr, ptr %3, align 8
  %6 = load i64, ptr %4, align 8
  %7 = getelementptr inbounds %class.EventZStatisticsCounter, ptr %5, i32 0, i32 2
  store i64 %6, ptr %7, align 8
  ret void
}

; Function Attrs: mustprogress nounwind uwtable
define linkonce_odr hidden void @_ZN23EventZStatisticsCounter6set_idEm(ptr noundef nonnull align 8 dereferenceable(48) %0, i64 noundef %1) #1 comdat align 2 {
  %3 = alloca ptr, align 8
  %4 = alloca i64, align 8
  store ptr %0, ptr %3, align 8
  store i64 %1, ptr %4, align 8
  %5 = load ptr, ptr %3, align 8
  %6 = load i64, ptr %4, align 8
  %7 = getelementptr inbounds %class.EventZStatisticsCounter, ptr %5, i32 0, i32 1
  store i64 %6, ptr %7, align 8
  ret void
}

; Function Attrs: mustprogress nounwind uwtable
define linkonce_odr hidden noundef zeroext i1 @_ZN8JfrEventI23EventZStatisticsCounterE13should_commitEv(ptr noundef nonnull align 8 dereferenceable(19) %0) #1 comdat align 2 {
  %2 = alloca i1, align 1
  %3 = alloca ptr, align 8
  store ptr %0, ptr %3, align 8
  %4 = load ptr, ptr %3, align 8
  %5 = call noundef zeroext i1 @_ZN8JfrEventI23EventZStatisticsCounterE10is_enabledEv()
  br i1 %5, label %7, label %6

6:                                                ; preds = %1
  store i1 false, ptr %2, align 1
  br label %20

7:                                                ; preds = %1
  %8 = getelementptr inbounds %class.JfrEvent.9, ptr %4, i32 0, i32 2
  %9 = load i8, ptr %8, align 8
  %10 = trunc i8 %9 to i1
  br i1 %10, label %11, label %12

11:                                               ; preds = %7
  store i1 true, ptr %2, align 1
  br label %20

12:                                               ; preds = %7
  %13 = call noundef zeroext i1 @_ZN8JfrEventI23EventZStatisticsCounterE8evaluateEv(ptr noundef nonnull align 8 dereferenceable(19) %4)
  %14 = getelementptr inbounds %class.JfrEvent.9, ptr %4, i32 0, i32 3
  %15 = zext i1 %13 to i8
  store i8 %15, ptr %14, align 1
  %16 = getelementptr inbounds %class.JfrEvent.9, ptr %4, i32 0, i32 4
  store i8 1, ptr %16, align 2
  %17 = getelementptr inbounds %class.JfrEvent.9, ptr %4, i32 0, i32 3
  %18 = load i8, ptr %17, align 1
  %19 = trunc i8 %18 to i1
  store i1 %19, ptr %2, align 1
  br label %20

20:                                               ; preds = %12, %11, %6
  %21 = load i1, ptr %2, align 1
  ret i1 %21
}

; Function Attrs: mustprogress nounwind uwtable
define linkonce_odr hidden void @_ZN23EventZStatisticsCounterC2E14EventStartTime(ptr noundef nonnull align 8 dereferenceable(48) %0, i32 noundef %1) unnamed_addr #1 comdat align 2 {
  %3 = alloca ptr, align 8
  %4 = alloca i32, align 4
  store ptr %0, ptr %3, align 8
  store i32 %1, ptr %4, align 4
  %5 = load ptr, ptr %3, align 8
  %6 = load i32, ptr %4, align 4
  call void @_ZN8JfrEventI23EventZStatisticsCounterEC2E14EventStartTime(ptr noundef nonnull align 8 dereferenceable(19) %5, i32 noundef %6)
  ret void
}

; Function Attrs: mustprogress nounwind uwtable
define linkonce_odr hidden void @_ZN19NoSafepointVerifierC2Ev(ptr noundef nonnull align 8 dereferenceable(8) %0) unnamed_addr #1 comdat align 2 {
  %2 = alloca ptr, align 8
  store ptr %0, ptr %2, align 8
  ret void
}

; Function Attrs: mustprogress nounwind uwtable
define hidden void @_ZN7ZTracer17send_stat_counterERK12ZStatCountermm(ptr noundef nonnull align 8 dereferenceable(72) %0, i64 noundef %1, i64 noundef %2) #1 align 2 {
  %4 = alloca ptr, align 8
  %5 = alloca i64, align 8
  %6 = alloca i64, align 8
  %7 = alloca %class.NoSafepointVerifier, align 8
  %8 = alloca %class.EventZStatisticsCounter, align 8
  store ptr %0, ptr %4, align 8
  store i64 %1, ptr %5, align 8
  store i64 %2, ptr %6, align 8
  call void @_ZN19NoSafepointVerifierC2Ev(ptr noundef nonnull align 8 dereferenceable(8) %7)
  call void @_ZN23EventZStatisticsCounterC2E14EventStartTime(ptr noundef nonnull align 8 dereferenceable(48) %8, i32 noundef 1)
  %9 = call noundef zeroext i1 @_ZN8JfrEventI23EventZStatisticsCounterE13should_commitEv(ptr noundef nonnull align 8 dereferenceable(19) %8)
  br i1 %9, label %10, label %16

10:                                               ; preds = %3
  %11 = load ptr, ptr %4, align 8
  %12 = call noundef i32 @_ZNK10ZStatValue2idEv(ptr noundef nonnull align 8 dereferenceable(24) %11)
  %13 = zext i32 %12 to i64
  call void @_ZN23EventZStatisticsCounter6set_idEm(ptr noundef nonnull align 8 dereferenceable(48) %8, i64 noundef %13)
  %14 = load i64, ptr %5, align 8
  call void @_ZN23EventZStatisticsCounter13set_incrementEm(ptr noundef nonnull align 8 dereferenceable(48) %8, i64 noundef %14)
  %15 = load i64, ptr %6, align 8
  call void @_ZN23EventZStatisticsCounter9set_valueEm(ptr noundef nonnull align 8 dereferenceable(48) %8, i64 noundef %15)
  call void @_ZN8JfrEventI23EventZStatisticsCounterE6commitEv(ptr noundef nonnull align 8 dereferenceable(19) %8)
  br label %16

16:                                               ; preds = %10, %3
  call void @_ZN19NoSafepointVerifierD2Ev(ptr noundef nonnull align 8 dereferenceable(8) %7) #8
  ret void
}